MPASM 5.57  /HOME/DINUSHA/MPLABXPROJECTS/RAD   10-22-2014  19:57:04         PAGE  1


LOC  OBJECT CODE     LINE SOURCE TEXT
  VALUE

Warning[205]: Found directive in column 1. (list)
                      00001 list p=16f877a
                      00002 #include <p16f877a.inc>
                      00001         LIST
                      00002 
                      00003 ;==========================================================================
                      00004 ; Build date : May 28 2014
                      00005 ;  MPASM PIC16F877A processor include
                      00006 ; 
                      00007 ;  (c) Copyright 1999-2014 Microchip Technology, All rights reserved
                      00008 ;==========================================================================
                      00009 
                      00567         LIST
                      00003 
Warning[205]: Found directive in column 1. (errorlevel)
                      00004 errorlevel -302
                      00005 
Warning[205]: Found directive in column 1. (__CONFIG)
2007   3F32           00006 __CONFIG   _CP_OFF & _DEBUG_OFF & _WRT_OFF & _CPD_OFF & _LVP_OFF & _BODEN_OFF & _PWRTE_ON & _WDT_OFF & _
                            HS_OSC
                      00007 
                      00008 #define     FOSC    D'20000'    ; Speed in KHz
                      00009 #define     BAUD    D'100'      ; Speed in kbps
                      00010 
                      00011 #define     DEVICE_ADDR H'60'
                      00012 
Warning[205]: Found directive in column 1. (UDATA)
                      00013 UDATA
0000                  00014 i2c_temp1   RES 1
0001                  00015 i2c_temp2   RES 1
                      00016 
0002                  00017 byte1       RES 1
0003                  00018 byte2       RES 1
0004                  00019 byte3       RES 1
0005                  00020 byte4       RES 1
0006                  00021 byte5       RES 1
                      00022 
                      00023 
Warning[205]: Found directive in column 1. (org)
                      00024 org 0x00
Warning[203]: Found opcode in column 1. (goto)
0000   2???           00025 goto main
                      00026 
0001                  00027 main
                      00028 
0001   ???? ????      00029     pagesel mc_init
0003   2???           00030     call    mc_init
                      00031 
0004   ???? ????      00032     banksel byte1
0006   01??           00033     clrf    byte1
                      00034 
0007   ???? ????      00035     banksel byte2
0009   01??           00036     clrf    byte2
MPASM 5.57  /HOME/DINUSHA/MPLABXPROJECTS/RAD   10-22-2014  19:57:04         PAGE  2


LOC  OBJECT CODE     LINE SOURCE TEXT
  VALUE

                      00037 
000A   ???? ????      00038     banksel byte3
000C   01??           00039     clrf    byte3
                      00040 
000D   ???? ????      00041     banksel byte4
000F   01??           00042     clrf    byte4
                      00043 
0010   ???? ????      00044     banksel byte5
0012   01??           00045     clrf    byte5
                      00046 
0013   30FF           00047     movlw   0xff
                      00048     ;banksel PORTB
                      00049     ;movwf   PORTB
                      00050 
0014   ???? ????      00051     pagesel i2c_init
0016   2???           00052     call    i2c_init
                      00053 
                      00054     ; Setting search mode on
0017   3040           00055     movlw   b'01000000'
0018   ???? ????      00056     banksel byte1
001A   00??           00057     movwf   byte1
                      00058 
001B   30A0           00059     movlw   b'10100000'
001C   ???? ????      00060     banksel byte3
001E   00??           00061     movwf   byte3
                      00062 
001F   ???? ????      00063     pagesel i2c_write
0021   2???           00064     call    i2c_write
                      00065 
0022   30FF           00066     movlw   0xff
0023   1283 1303      00067     banksel PORTB
0025   0086           00068     movwf   PORTB
                      00069 
0026   2???           00070     goto loop
Warning[203]: Found opcode in column 1. (goto)
0027   2???           00071 goto $
                      00072 
                      00073 ;---------------------------------------------------------------------------
0028                  00074 loop
                      00075 
Warning[203]: Found opcode in column 1. (goto)
0028   2???           00076 goto loop
                      00077 ;---------------------------------------------------------------------------
                      00078 
0029                  00079 mc_init
                      00080     ;Switching to bank 1
0029   1683           00081     bsf     STATUS, RP0
002A   1303           00082     bcf     STATUS, RP1
                      00083 
002B   3000           00084     movlw   0x00
002C   0086           00085     movwf   TRISB
                      00086 
                      00087     ;Switching to bank 0
MPASM 5.57  /HOME/DINUSHA/MPLABXPROJECTS/RAD   10-22-2014  19:57:04         PAGE  3


LOC  OBJECT CODE     LINE SOURCE TEXT
  VALUE

002D   1283           00088     bcf     STATUS, RP0
                      00089 
002E   3000           00090     movlw   0x00
002F   0086           00091     movwf   PORTB
                      00092 
                      00093     ;Turning off AD converter
0030   101F           00094     bcf     ADCON0, ADON
                      00095 
                      00096 
Warning[203]: Found opcode in column 1. (return)
0031   0008           00097 return
                      00098 
0032                  00099 i2c_init
                      00100     ; RC3 and RC4 as inputs
0032   3018           00101     movlw   b'00011000'
0033   1683 1303      00102     banksel TRISC
0035   0087           00103     movwf   TRISC
                      00104 
                      00105     ; Configuring MSSP module for master mode
0036   3028           00106     movlw   b'00101000'
0037   1283 1303      00107     banksel SSPCON
0039   0094           00108     movwf   SSPCON
                      00109 
                      00110     ; Configuring input levels and slew rate as i2c standard levels
003A   3080           00111     movlw   b'10000000'
003B   1683 1303      00112     banksel SSPSTAT
003D   0094           00113     movwf   SSPSTAT
                      00114 
                      00115     ; Configure baud rate
003E   3031           00116     movlw   (FOSC / (4 * BAUD)) - 1
003F   1683 1303      00117     banksel SSPADD
0041   0093           00118     movwf   SSPADD
                      00119 
Warning[203]: Found opcode in column 1. (return)
0042   0008           00120 return
                      00121 
0043                  00122 i2c_write
                      00123 
                      00124     ; Initiate start condition
0043   1683 1303      00125     banksel SSPCON2
0045   1411           00126     bsf     SSPCON2, SEN
                      00127 
0046   ???? ????      00128     pagesel i2c_wait
0048   2???           00129     call    i2c_wait
                      00130 
                      00131     ; Send address byte and wait
0049   3060           00132     movlw   DEVICE_ADDR
004A   ???? ????      00133     banksel i2c_temp1
004C   00??           00134     movwf   i2c_temp1
                      00135 
004D   1003           00136     bcf     STATUS, C
004E   0D??           00137     rlf     i2c_temp1, w
004F   2???           00138     call    i2c_send_byte
MPASM 5.57  /HOME/DINUSHA/MPLABXPROJECTS/RAD   10-22-2014  19:57:04         PAGE  4


LOC  OBJECT CODE     LINE SOURCE TEXT
  VALUE

                      00139 
0050   1683 1303      00140     banksel SSPCON2
0052   1B11           00141     btfsc   SSPCON2, ACKSTAT
0053   2???           00142     goto    i2c_fail
                      00143 
                      00144     ; Sending byte1
0054   ???? ????      00145     banksel byte1
0056   08??           00146     movf    byte1, w
0057   ???? ????      00147     pagesel i2c_send_byte
0059   2???           00148     call    i2c_send_byte
                      00149 
                      00150     ; Sending byte2
005A   ???? ????      00151     banksel byte2
005C   08??           00152     movf    byte2, w
005D   ???? ????      00153     pagesel i2c_send_byte
005F   2???           00154     call    i2c_send_byte
                      00155 
                      00156     ; Sending byte3
0060   ???? ????      00157     banksel byte3
0062   08??           00158     movf    byte3, w
0063   ???? ????      00159     pagesel i2c_send_byte
0065   2???           00160     call    i2c_send_byte
                      00161 
                      00162     ; Sending byte4
0066   ???? ????      00163     banksel byte4
0068   08??           00164     movf    byte4, w
0069   ???? ????      00165     pagesel i2c_send_byte
006B   2???           00166     call    i2c_send_byte
                      00167 
                      00168     ; Sending byte5
006C   ???? ????      00169     banksel byte5
006E   08??           00170     movf    byte5, w
006F   ???? ????      00171     pagesel i2c_send_byte
0071   2???           00172     call    i2c_send_byte
                      00173 
                      00174     ; Sending stop condition
0072   1683 1303      00175     banksel SSPCON2
0074   1511           00176     bsf     SSPCON2, PEN
0075   ???? ????      00177     pagesel i2c_wait
0077   2???           00178     call    i2c_wait
                      00179 
Warning[203]: Found opcode in column 1. (return)
0078   0008           00180 return
                      00181 
0079                  00182 i2c_read
                      00183 
Warning[203]: Found opcode in column 1. (return)
0079   0008           00184 return
                      00185 
007A                  00186 i2c_send_byte
007A   1283 1303      00187     banksel SSPBUF
007C   0093           00188     movwf   SSPBUF
Warning[203]: Found opcode in column 1. (retlw)
MPASM 5.57  /HOME/DINUSHA/MPLABXPROJECTS/RAD   10-22-2014  19:57:04         PAGE  5


LOC  OBJECT CODE     LINE SOURCE TEXT
  VALUE

007D   3400           00189 retlw 0
                      00190 
007E                  00191 i2c_wait
007E   1283 1303      00192     banksel PIR1
0080   1D8C           00193     btfss   PIR1, SSPIF
0081   2???           00194     goto    $-1
0082   118C           00195     bcf     PIR1, SSPIF
Warning[203]: Found opcode in column 1. (retlw)
0083   3400           00196 retlw 0
                      00197 
0084                  00198 i2c_fail
                      00199 
0084   2???           00200     goto $
                      00201 
Warning[205]: Found directive in column 1. (end)
3F32                  00202 end
MPASM 5.57  /HOME/DINUSHA/MPLABXPROJECTS/RAD   10-22-2014  19:57:04         PAGE  6


SYMBOL TABLE
  LABEL                             VALUE 

ACKDT                             00000005
ACKEN                             00000004
ACKSTAT                           00000006
ADCON0                            0000001F
ADCON1                            0000009F
ADCS0                             00000006
ADCS1                             00000007
ADCS2                             00000006
ADDEN                             00000003
ADFM                              00000007
ADIE                              00000006
ADIF                              00000006
ADON                              00000000
ADRESH                            0000001E
ADRESL                            0000009E
BAUD                              D'100'
BCLIE                             00000003
BCLIF                             00000003
BF                                00000000
BRGH                              00000002
C                                 00000000
C1INV                             00000004
C1OUT                             00000006
C2INV                             00000005
C2OUT                             00000007
CCP1CON                           00000017
CCP1IE                            00000002
CCP1IF                            00000002
CCP1M0                            00000000
CCP1M1                            00000001
CCP1M2                            00000002
CCP1M3                            00000003
CCP1X                             00000005
CCP1Y                             00000004
CCP2CON                           0000001D
CCP2IE                            00000000
CCP2IF                            00000000
CCP2M0                            00000000
CCP2M1                            00000001
CCP2M2                            00000002
CCP2M3                            00000003
CCP2X                             00000005
CCP2Y                             00000004
CCPR1                             00000015
CCPR1H                            00000016
CCPR1L                            00000015
CCPR2                             0000001B
CCPR2H                            0000001C
CCPR2L                            0000001B
CHS0                              00000003
CHS1                              00000004
CHS2                              00000005
CIS                               00000003
MPASM 5.57  /HOME/DINUSHA/MPLABXPROJECTS/RAD   10-22-2014  19:57:04         PAGE  7


SYMBOL TABLE
  LABEL                             VALUE 

CKE                               00000006
CKP                               00000004
CM0                               00000000
CM1                               00000001
CM2                               00000002
CMCON                             0000009C
CMIE                              00000006
CMIF                              00000006
CREN                              00000004
CSRC                              00000007
CVR0                              00000000
CVR1                              00000001
CVR2                              00000002
CVR3                              00000003
CVRCON                            0000009D
CVREN                             00000007
CVROE                             00000006
CVRR                              00000005
D                                 00000005
DATA_ADDRESS                      00000005
DC                                00000001
DEVICE_ADDR                       H'60'
D_A                               00000005
D_NOT_A                           00000005
EEADR                             0000010D
EEADRH                            0000010F
EECON1                            0000018C
EECON2                            0000018D
EEDATA                            0000010C
EEDATH                            0000010E
EEIE                              00000004
EEIF                              00000004
EEPGD                             00000007
F                                 00000001
FERR                              00000002
FOSC                              D'20000'
FSR                               00000004
GCEN                              00000007
GIE                               00000007
GO                                00000002
GO_DONE                           00000002
GO_NOT_DONE                       00000002
I2C_DATA                          00000005
I2C_READ                          00000002
I2C_START                         00000003
I2C_STOP                          00000004
IBF                               00000007
IBOV                              00000005
INDF                              00000000
INTCON                            0000000B
INTE                              00000004
INTEDG                            00000006
INTF                              00000001
MPASM 5.57  /HOME/DINUSHA/MPLABXPROJECTS/RAD   10-22-2014  19:57:04         PAGE  8


SYMBOL TABLE
  LABEL                             VALUE 

IRP                               00000007
NOT_A                             00000005
NOT_ADDRESS                       00000005
NOT_BO                            00000000
NOT_BOR                           00000000
NOT_DONE                          00000002
NOT_PD                            00000003
NOT_POR                           00000001
NOT_RBPU                          00000007
NOT_RC8                           00000006
NOT_T1SYNC                        00000002
NOT_TO                            00000004
NOT_TX8                           00000006
NOT_W                             00000002
NOT_WRITE                         00000002
OBF                               00000006
OERR                              00000001
OPTION_REG                        00000081
P                                 00000004
PCFG0                             00000000
PCFG1                             00000001
PCFG2                             00000002
PCFG3                             00000003
PCL                               00000002
PCLATH                            0000000A
PCON                              0000008E
PEIE                              00000006
PEN                               00000002
PIE1                              0000008C
PIE2                              0000008D
PIR1                              0000000C
PIR2                              0000000D
PORTA                             00000005
PORTB                             00000006
PORTC                             00000007
PORTD                             00000008
PORTE                             00000009
PR2                               00000092
PS0                               00000000
PS1                               00000001
PS2                               00000002
PSA                               00000003
PSPIE                             00000007
PSPIF                             00000007
PSPMODE                           00000004
R                                 00000002
RA0                               00000000
RA1                               00000001
RA2                               00000002
RA3                               00000003
RA4                               00000004
RA5                               00000005
RB0                               00000000
MPASM 5.57  /HOME/DINUSHA/MPLABXPROJECTS/RAD   10-22-2014  19:57:04         PAGE  9


SYMBOL TABLE
  LABEL                             VALUE 

RB1                               00000001
RB2                               00000002
RB3                               00000003
RB4                               00000004
RB5                               00000005
RB6                               00000006
RB7                               00000007
RBIE                              00000003
RBIF                              00000000
RC0                               00000000
RC1                               00000001
RC2                               00000002
RC3                               00000003
RC4                               00000004
RC5                               00000005
RC6                               00000006
RC7                               00000007
RC8_9                             00000006
RC9                               00000006
RCD8                              00000000
RCEN                              00000003
RCIE                              00000005
RCIF                              00000005
RCREG                             0000001A
RCSTA                             00000018
RD                                00000000
RD0                               00000000
RD1                               00000001
RD2                               00000002
RD3                               00000003
RD4                               00000004
RD5                               00000005
RD6                               00000006
RD7                               00000007
RE0                               00000000
RE1                               00000001
RE2                               00000002
READ_WRITE                        00000002
RP0                               00000005
RP1                               00000006
RSEN                              00000001
RX9                               00000006
RX9D                              00000000
R_NOT_W                           00000002
R_W                               00000002
S                                 00000003
SEN                               00000000
SMP                               00000007
SPBRG                             00000099
SPEN                              00000007
SREN                              00000005
SSPADD                            00000093
SSPBUF                            00000013
MPASM 5.57  /HOME/DINUSHA/MPLABXPROJECTS/RAD   10-22-2014  19:57:04         PAGE 10


SYMBOL TABLE
  LABEL                             VALUE 

SSPCON                            00000014
SSPCON2                           00000091
SSPEN                             00000005
SSPIE                             00000003
SSPIF                             00000003
SSPM0                             00000000
SSPM1                             00000001
SSPM2                             00000002
SSPM3                             00000003
SSPOV                             00000006
SSPSTAT                           00000094
STATUS                            00000003
SYNC                              00000004
T0CS                              00000005
T0IE                              00000005
T0IF                              00000002
T0SE                              00000004
T1CKPS0                           00000004
T1CKPS1                           00000005
T1CON                             00000010
T1INSYNC                          00000002
T1OSCEN                           00000003
T1SYNC                            00000002
T2CKPS0                           00000000
T2CKPS1                           00000001
T2CON                             00000012
TMR0                              00000001
TMR0IE                            00000005
TMR0IF                            00000002
TMR1                              0000000E
TMR1CS                            00000001
TMR1H                             0000000F
TMR1IE                            00000000
TMR1IF                            00000000
TMR1L                             0000000E
TMR1ON                            00000000
TMR2                              00000011
TMR2IE                            00000001
TMR2IF                            00000001
TMR2ON                            00000002
TOUTPS0                           00000003
TOUTPS1                           00000004
TOUTPS2                           00000005
TOUTPS3                           00000006
TRISA                             00000085
TRISA0                            00000000
TRISA1                            00000001
TRISA2                            00000002
TRISA3                            00000003
TRISA4                            00000004
TRISA5                            00000005
TRISB                             00000086
TRISB0                            00000000
MPASM 5.57  /HOME/DINUSHA/MPLABXPROJECTS/RAD   10-22-2014  19:57:04         PAGE 11


SYMBOL TABLE
  LABEL                             VALUE 

TRISB1                            00000001
TRISB2                            00000002
TRISB3                            00000003
TRISB4                            00000004
TRISB5                            00000005
TRISB6                            00000006
TRISB7                            00000007
TRISC                             00000087
TRISC0                            00000000
TRISC1                            00000001
TRISC2                            00000002
TRISC3                            00000003
TRISC4                            00000004
TRISC5                            00000005
TRISC6                            00000006
TRISC7                            00000007
TRISD                             00000088
TRISD0                            00000000
TRISD1                            00000001
TRISD2                            00000002
TRISD3                            00000003
TRISD4                            00000004
TRISD5                            00000005
TRISD6                            00000006
TRISD7                            00000007
TRISE                             00000089
TRISE0                            00000000
TRISE1                            00000001
TRISE2                            00000002
TRMT                              00000001
TX8_9                             00000006
TX9                               00000006
TX9D                              00000000
TXD8                              00000000
TXEN                              00000005
TXIE                              00000004
TXIF                              00000004
TXREG                             00000019
TXSTA                             00000098
UA                                00000001
W                                 00000000
WCOL                              00000007
WR                                00000001
WREN                              00000002
WRERR                             00000003
Z                                 00000002
_.org_0_0027                      00000027
_.org_0_0081                      00000081
_.org_0_0084                      00000084
_BODEN_OFF                        00003FBF
_BODEN_ON                         00003FFF
_BOREN_OFF                        00003FBF
_BOREN_ON                         00003FFF
MPASM 5.57  /HOME/DINUSHA/MPLABXPROJECTS/RAD   10-22-2014  19:57:04         PAGE 12


SYMBOL TABLE
  LABEL                             VALUE 

_CONFIG                           00002007
_CPD_OFF                          00003FFF
_CPD_ON                           00003EFF
_CP_ALL                           00001FFF
_CP_OFF                           00003FFF
_CP_ON                            00001FFF
_DEBUG_OFF                        00003FFF
_DEBUG_ON                         000037FF
_DEVID1                           00002006
_FOSC_EXTRC                       00003FFF
_FOSC_HS                          00003FFE
_FOSC_LP                          00003FFC
_FOSC_XT                          00003FFD
_HS_OSC                           00003FFE
_IDLOC0                           00002000
_IDLOC1                           00002001
_IDLOC2                           00002002
_IDLOC3                           00002003
_LP_OSC                           00003FFC
_LVP_OFF                          00003F7F
_LVP_ON                           00003FFF
_PWRTE_OFF                        00003FFF
_PWRTE_ON                         00003FF7
_RC_OSC                           00003FFF
_WDTE_OFF                         00003FFB
_WDTE_ON                          00003FFF
_WDT_OFF                          00003FFB
_WDT_ON                           00003FFF
_WRT_1FOURTH                      00003BFF
_WRT_256                          00003DFF
_WRT_HALF                         000039FF
_WRT_OFF                          00003FFF
_XT_OSC                           00003FFD
__16F877A                         00000001
byte1                             00000002
byte2                             00000003
byte3                             00000004
byte4                             00000005
byte5                             00000006
i2c_fail                          00000084
i2c_init                          00000032
i2c_read                          00000079
i2c_send_byte                     0000007A
i2c_temp1                         00000000
i2c_temp2                         00000001
i2c_wait                          0000007E
i2c_write                         00000043
loop                              00000028
main                              00000001
mc_init                           00000029

MPASM 5.57  /HOME/DINUSHA/MPLABXPROJECTS/RAD   10-22-2014  19:57:04         PAGE 13





Errors   :     0
Warnings :    15 reported,     0 suppressed
Messages :     0 reported,     7 suppressed

